; Function Attrs: mustprogress uwtable
define void @_ZN2cv6detail7Blender7prepareENS_5Rect_IiEE(ptr noundef nonnull align 8 dereferenceable(184) %0, i64 %1, i64 %2) unnamed_addr #3 align 2 personality ptr @__gxx_personality_v0 {
  %4 = alloca %"class.cv::_InputArray", align 8
  %5 = alloca %"class.cv::Scalar_", align 8
  %6 = alloca %"class.cv::_InputArray", align 8
  %7 = alloca %"class.cv::Scalar_", align 8
  %8 = getelementptr inbounds nuw i8, ptr %0, i64 8
  tail call void @_ZN2cv4UMat6createENS_5Size_IiEEiNS_14UMatUsageFlagsE(ptr noundef nonnull align 8 dereferenceable(80) %8, i64 %2, i32 noundef 19, i32 noundef 0)
  call void @llvm.lifetime.start.p0(i64 24, ptr nonnull %4) #22
  call void @llvm.lifetime.start.p0(i64 32, ptr nonnull %5) #22
  %9 = getelementptr inbounds nuw i8, ptr %4, i64 16
  call void @llvm.memset.p0.i64(ptr noundef nonnull align 8 dereferenceable(32) %5, i8 0, i64 32, i1 false)
  store i32 -1056833530, ptr %4, align 8, !tbaa !52
  %10 = getelementptr inbounds nuw i8, ptr %4, i64 8
  store ptr %5, ptr %10, align 8, !tbaa !55
  store i64 17179869185, ptr %9, align 8
  %11 = call noundef nonnull align 8 dereferenceable(24) ptr @_ZN2cv7noArrayEv()
  %12 = call noundef nonnull align 8 dereferenceable(80) ptr @_ZN2cv4UMat5setToERKNS_11_InputArrayES3_(ptr noundef nonnull align 8 dereferenceable(80) %8, ptr noundef nonnull align 8 dereferenceable(24) %4, ptr noundef nonnull align 8 dereferenceable(24) %11)
  call void @llvm.lifetime.end.p0(i64 32, ptr nonnull %5) #22
  call void @llvm.lifetime.end.p0(i64 24, ptr nonnull %4) #22
  %13 = getelementptr inbounds nuw i8, ptr %0, i64 88
  call void @_ZN2cv4UMat6createENS_5Size_IiEEiNS_14UMatUsageFlagsE(ptr noundef nonnull align 8 dereferenceable(80) %13, i64 %2, i32 noundef 0, i32 noundef 0)
  call void @llvm.lifetime.start.p0(i64 24, ptr nonnull %6) #22
  call void @llvm.lifetime.start.p0(i64 32, ptr nonnull %7) #22
  %14 = getelementptr inbounds nuw i8, ptr %6, i64 16
  call void @llvm.memset.p0.i64(ptr noundef nonnull align 8 dereferenceable(32) %7, i8 0, i64 32, i1 false)
  store i32 -1056833530, ptr %6, align 8, !tbaa !52
  %15 = getelementptr inbounds nuw i8, ptr %6, i64 8
  store ptr %7, ptr %15, align 8, !tbaa !55
  store i64 17179869185, ptr %14, align 8
  %16 = call noundef nonnull align 8 dereferenceable(24) ptr @_ZN2cv7noArrayEv()
  %17 = call noundef nonnull align 8 dereferenceable(80) ptr @_ZN2cv4UMat5setToERKNS_11_InputArrayES3_(ptr noundef nonnull align 8 dereferenceable(80) %13, ptr noundef nonnull align 8 dereferenceable(24) %6, ptr noundef nonnull align 8 dereferenceable(24) %16)
  call void @llvm.lifetime.end.p0(i64 32, ptr nonnull %7) #22
  call void @llvm.lifetime.end.p0(i64 24, ptr nonnull %6) #22
  %18 = getelementptr inbounds nuw i8, ptr %0, i64 168
  store i64 %1, ptr %18, align 8
  %.sroa.2.0..sroa_idx = getelementptr inbounds nuw i8, ptr %0, i64 176
  store i64 %2, ptr %.sroa.2.0..sroa_idx, align 8
  ret void
}